; Function Attrs: nounwind uwtable
define ptr @l_Lean_AssocList_foldlM___at_Lean_Meta_FVarSubst_domain___spec__1(ptr noundef %0, ptr noundef %1) local_unnamed_addr #0 {
  br label %3

3:                                                ; preds = %lean_alloc_ctor.exit, %2
  %.011 = phi ptr [ %1, %2 ], [ %18, %lean_alloc_ctor.exit ]
  %.0 = phi ptr [ %0, %2 ], [ %27, %lean_alloc_ctor.exit ]
  %4 = ptrtoint ptr %.011 to i64
  %5 = and i64 %4, 1
  %.not.i = icmp eq i64 %5, 0
  br i1 %.not.i, label %9, label %6

6:                                                ; preds = %3
  %7 = lshr i64 %4, 1
  %8 = trunc i64 %7 to i32
  br label %lean_obj_tag.exit

9:                                                ; preds = %3
  %10 = getelementptr i8, ptr %.011, i64 4
  %.val.i = load i32, ptr %10, align 4
  %11 = lshr i32 %.val.i, 24
  br label %lean_obj_tag.exit

lean_obj_tag.exit:                                ; preds = %6, %9
  %.0.i = phi i32 [ %8, %6 ], [ %11, %9 ]
  %12 = icmp eq i32 %.0.i, 0
  br i1 %12, label %13, label %14

13:                                               ; preds = %lean_obj_tag.exit
  ret ptr %.0

14:                                               ; preds = %lean_obj_tag.exit
  %15 = getelementptr inbounds nuw i8, ptr %.011, i64 8
  %16 = load ptr, ptr %15, align 8, !tbaa !10
  %17 = getelementptr inbounds nuw i8, ptr %.011, i64 24
  %18 = load ptr, ptr %17, align 8, !tbaa !10
  %19 = ptrtoint ptr %16 to i64
  %20 = and i64 %19, 1
  %.not = icmp eq i64 %20, 0
  br i1 %.not, label %21, label %lean_inc.exit

21:                                               ; preds = %14
  %.val.i12 = load i32, ptr %16, align 4, !tbaa !4
  %22 = icmp sgt i32 %.val.i12, 0
  br i1 %22, label %23, label %25, !prof !9

23:                                               ; preds = %21
  %24 = add nuw i32 %.val.i12, 1
  store i32 %24, ptr %16, align 4, !tbaa !4
  br label %lean_inc.exit

25:                                               ; preds = %21
  %.not.i13 = icmp eq i32 %.val.i12, 0
  br i1 %.not.i13, label %lean_inc.exit, label %26

26:                                               ; preds = %25
  tail call void @lean_inc_ref_cold(ptr noundef nonnull %16) #3
  br label %lean_inc.exit

lean_inc.exit:                                    ; preds = %26, %25, %23, %14
  tail call void @lean_inc_heartbeat() #3
  %27 = tail call noalias ptr @mi_malloc_small(i64 noundef 24) #3
  %28 = icmp eq ptr %27, null
  br i1 %28, label %29, label %lean_alloc_ctor.exit

29:                                               ; preds = %lean_inc.exit
  tail call void @lean_internal_panic_out_of_memory() #4
  unreachable

lean_alloc_ctor.exit:                             ; preds = %lean_inc.exit
  %30 = getelementptr inbounds nuw i8, ptr %27, i64 4
  store i32 1, ptr %27, align 4, !tbaa !4
  store i32 16908312, ptr %30, align 4
  %31 = getelementptr inbounds nuw i8, ptr %27, i64 8
  store ptr %16, ptr %31, align 8, !tbaa !10
  %32 = getelementptr inbounds nuw i8, ptr %27, i64 16
  store ptr %.0, ptr %32, align 8, !tbaa !10
  br label %3
}